; Function Attrs: nounwind uwtable
define hidden zeroext i1 @SDL_RestoreWindow_REAL(ptr noundef %0) local_unnamed_addr #0 {
  %2 = load ptr, ptr @_this, align 8
  %.not = icmp eq ptr %2, null
  br i1 %.not, label %3, label %5

3:                                                ; preds = %1
  %4 = tail call zeroext i1 (ptr, ...) @SDL_SetError_REAL(ptr noundef nonnull @.str.1) #19
  br label %SDL_SyncIfRequired.exit

5:                                                ; preds = %1
  %6 = tail call zeroext i1 @SDL_ObjectValid(ptr noundef %0, i32 noundef 1) #19
  br i1 %6, label %9, label %7

7:                                                ; preds = %5
  %8 = tail call zeroext i1 (ptr, ...) @SDL_SetError_REAL(ptr noundef nonnull @.str.20) #19
  br label %SDL_SyncIfRequired.exit

9:                                                ; preds = %5
  %10 = getelementptr inbounds nuw i8, ptr %0, i64 72
  %11 = load i64, ptr %10, align 8
  %12 = and i64 %11, 786432
  %.not8 = icmp eq i64 %12, 0
  br i1 %.not8, label %15, label %13

13:                                               ; preds = %9
  %14 = tail call zeroext i1 (ptr, ...) @SDL_SetError_REAL(ptr noundef nonnull @.str.22) #19
  br label %SDL_SyncIfRequired.exit

15:                                               ; preds = %9
  %16 = load ptr, ptr @_this, align 8
  %17 = getelementptr inbounds nuw i8, ptr %16, i64 224
  %18 = load ptr, ptr %17, align 8
  %.not9 = icmp eq ptr %18, null
  br i1 %.not9, label %19, label %21

19:                                               ; preds = %15
  %20 = tail call zeroext i1 (ptr, ...) @SDL_SetError_REAL(ptr noundef nonnull @.str.24) #19
  br label %SDL_SyncIfRequired.exit

21:                                               ; preds = %15
  %22 = and i64 %11, 8
  %.not10 = icmp eq i64 %22, 0
  br i1 %.not10, label %27, label %23

23:                                               ; preds = %21
  %24 = getelementptr inbounds nuw i8, ptr %0, i64 80
  %25 = load i64, ptr %24, align 8
  %26 = and i64 %25, -193
  store i64 %26, ptr %24, align 8
  br label %SDL_SyncIfRequired.exit

27:                                               ; preds = %21
  tail call void %18(ptr noundef nonnull %16, ptr noundef nonnull %0) #19
  %28 = load i8, ptr @syncHint, align 1, !range !6, !noundef !7
  %29 = trunc nuw i8 %28 to i1
  br i1 %29, label %30, label %SDL_SyncIfRequired.exit

30:                                               ; preds = %27
  %31 = load ptr, ptr @_this, align 8
  %.not.i.i = icmp eq ptr %31, null
  br i1 %.not.i.i, label %32, label %34

32:                                               ; preds = %30
  %33 = tail call zeroext i1 (ptr, ...) @SDL_SetError_REAL(ptr noundef nonnull @.str.1) #19
  br label %SDL_SyncIfRequired.exit

34:                                               ; preds = %30
  %35 = tail call zeroext i1 @SDL_ObjectValid(ptr noundef nonnull %0, i32 noundef 1) #19
  br i1 %35, label %38, label %36

36:                                               ; preds = %34
  %37 = tail call zeroext i1 (ptr, ...) @SDL_SetError_REAL(ptr noundef nonnull @.str.20) #19
  br label %SDL_SyncIfRequired.exit

38:                                               ; preds = %34
  %39 = load ptr, ptr @_this, align 8
  %40 = getelementptr inbounds nuw i8, ptr %39, i64 392
  %41 = load ptr, ptr %40, align 8
  %.not4.i.i = icmp eq ptr %41, null
  br i1 %.not4.i.i, label %SDL_SyncIfRequired.exit, label %42

42:                                               ; preds = %38
  %43 = tail call zeroext i1 %41(ptr noundef nonnull %39, ptr noundef nonnull %0) #19
  br label %SDL_SyncIfRequired.exit

SDL_SyncIfRequired.exit:                          ; preds = %42, %38, %36, %32, %27, %23, %19, %13, %7, %3
  %.0 = phi i1 [ false, %13 ], [ true, %23 ], [ %20, %19 ], [ false, %7 ], [ false, %3 ], [ true, %27 ], [ true, %32 ], [ true, %36 ], [ true, %38 ], [ true, %42 ]
  ret i1 %.0
}